target datalayout = "e-m:e-p270:32:32-p271:32:32-p272:64:64-i64:64-i128:128-f80:128-n8:16:32:64-S128"
target triple = "x86_64-pc-linux-gnu"

%struct._VAConfigAttrib = type { i32, i32 }
%struct.AVCodecContext = type { ptr, i32, i32, ptr, i32, i32, ptr, ptr, ptr, i64, i32, i32, ptr, i32, %struct.AVRational, %struct.AVRational, %struct.AVRational, i32, i32, i32, i32, i32, %struct.AVRational, i32, i32, i32, i32, i32, i32, i32, i32, i32, i32, i32, ptr, ptr, i32, float, float, float, float, float, float, float, float, float, i32, i32, i32, i32, i32, i32, i32, i32, i32, i32, i32, i32, ptr, ptr, ptr, i32, i32, i32, i32, i32, i32, i32, i32, i32, i32, %struct.AVChannelLayout, i32, i32, i32, i32, i32, i32, i32, i32, ptr, i32, i32, i32, float, float, i32, i32, i32, i32, i32, ptr, i64, i64, float, float, i32, i32, ptr, ptr, i32, i32, i32, i32, i32, ptr, ptr, ptr, ptr, i32, i32, [8 x i64], i32, i32, i32, i32, i32, i32, i32, ptr, ptr, i32, i32, i32, i32, i32, i32, i32, i32, i32, i32, ptr, ptr, i32, i32, ptr, ptr, ptr, ptr, i32, i32, i64, i32, i32, i64, ptr, i64, ptr, i32, ptr, i32 }
%struct.AVRational = type { i32, i32 }
%struct.AVChannelLayout = type { i32, i32, %union.anon, ptr }
%union.anon = type { i64 }
%struct.VAAPIEncodeContext = type { %struct.FFHWBaseEncodeContext, ptr, i32, i32, i32, i32, i32, i32, ptr, ptr, i32, i32, i32, i32, i32, i32, [4 x %struct._VAConfigAttrib], i32, i32, i32, ptr, ptr, [4 x i32], [4 x ptr], [4 x i64], i32, %struct._VAEncMiscParameterRateControl, %struct._VAEncMiscParameterHRD, %struct._VAEncMiscParameterFrameRate, %struct._VAEncMiscParameterBufferMaxFrameSize, %struct._VAEncMiscParameterBufferQualityLevel, ptr, ptr, i32, i32, i32, i32, i32, i32, [20 x i32], [22 x i32], [21 x i32], [23 x i32], i32, i32, ptr, i32, i32 }
%struct.FFHWBaseEncodeContext = type { ptr, ptr, ptr, i32, i32, i32, i32, i32, i32, ptr, ptr, ptr, ptr, ptr, ptr, ptr, ptr, [2 x ptr], i32, i64, i64, i64, i64, i64, i64, i64, [112 x i64], i32, i32, i32, i32, i32, i32, i32, i32, i32, i32, i32, i32, i32, i32, i32, i32, ptr, i32, ptr, i32, ptr }
%struct._VAEncMiscParameterRateControl = type { i32, i32, i32, i32, i32, i32, %union.anon.0, i32, i32, i32, i32, [4 x i32] }
%union.anon.0 = type { %struct.anon }
%struct.anon = type { i32 }
%struct._VAEncMiscParameterHRD = type { i32, i32, [4 x i32] }
%struct._VAEncMiscParameterFrameRate = type { i32, %union.anon.1, [4 x i32] }
%union.anon.1 = type { %struct.anon.2 }
%struct.anon.2 = type { i32 }
%struct._VAEncMiscParameterBufferMaxFrameSize = type { i32, i32, [4 x i32] }
%struct._VAEncMiscParameterBufferQualityLevel = type { i32, [4 x i32] }

@.str.137 = private unnamed_addr constant [76 x i8] c"Supported slice structure (%#x) doesn't work for current tile requirement.\0A\00", align 1
@.str.138 = private unnamed_addr constant [79 x i8] c"Not enough block rows/cols (%d x %d) for configured number of tile (%d x %d); \00", align 1
@.str.139 = private unnamed_addr constant [34 x i8] c"using allowed maximum (%d x %d).\0A\00", align 1
@.str.140 = private unnamed_addr constant [125 x i8] c"The number of requested slices mismatches with configured number of tile (%d != %d); using requested tile number for slice.\0A\00", align 1
@.str.141 = private unnamed_addr constant [38 x i8] c"Encoding pictures with %d x %d tile.\0A\00", align 1

; Function Attrs: cold nounwind optsize uwtable
define internal i32 @vaapi_encode_init_tile_slice_structure(ptr noundef %0, i32 noundef %1) #2 {
  %3 = alloca i32, align 4
  %4 = alloca ptr, align 8
  %5 = alloca i32, align 4
  %6 = alloca ptr, align 8
  %7 = alloca i32, align 4
  %8 = alloca i32, align 4
  %9 = alloca i32, align 4
  store ptr %0, ptr %4, align 8, !tbaa !4
  store i32 %1, ptr %5, align 4, !tbaa !37
  call void @llvm.lifetime.start.p0(i64 8, ptr %6) #10
  %10 = load ptr, ptr %4, align 8, !tbaa !4
  %11 = getelementptr inbounds nuw %struct.AVCodecContext, ptr %10, i32 0, i32 6
  %12 = load ptr, ptr %11, align 8, !tbaa !11
  store ptr %12, ptr %6, align 8, !tbaa !33
  call void @llvm.lifetime.start.p0(i64 4, ptr %7) #10
  call void @llvm.lifetime.start.p0(i64 4, ptr %8) #10
  %13 = load i32, ptr %5, align 4, !tbaa !37
  %14 = and i32 %13, 2
  %15 = icmp ne i32 %14, 0
  br i1 %15, label %28, label %16

16:                                               ; preds = %2
  %17 = load i32, ptr %5, align 4, !tbaa !37
  %18 = and i32 %17, 16
  %19 = icmp ne i32 %18, 0
  br i1 %19, label %20, label %25

20:                                               ; preds = %16
  %21 = load ptr, ptr %6, align 8, !tbaa !33
  %22 = getelementptr inbounds nuw %struct.VAAPIEncodeContext, ptr %21, i32 0, i32 37
  %23 = load i32, ptr %22, align 8, !tbaa !205
  %24 = icmp eq i32 %23, 1
  br i1 %24, label %28, label %25

25:                                               ; preds = %20, %16
  %26 = load ptr, ptr %4, align 8, !tbaa !4
  %27 = load i32, ptr %5, align 4, !tbaa !37
  call void (ptr, i32, ptr, ...) @av_log(ptr noundef %26, i32 noundef 16, ptr noundef @.str.137, i32 noundef %27)
  store i32 -22, ptr %3, align 4
  store i32 1, ptr %9, align 4
  br label %243

28:                                               ; preds = %20, %2
  %29 = load ptr, ptr %6, align 8, !tbaa !33
  %30 = getelementptr inbounds nuw %struct.VAAPIEncodeContext, ptr %29, i32 0, i32 38
  %31 = load i32, ptr %30, align 4, !tbaa !204
  %32 = load ptr, ptr %6, align 8, !tbaa !33
  %33 = getelementptr inbounds nuw %struct.VAAPIEncodeContext, ptr %32, i32 0, i32 33
  %34 = load i32, ptr %33, align 8, !tbaa !202
  %35 = icmp sgt i32 %31, %34
  br i1 %35, label %44, label %36

36:                                               ; preds = %28
  %37 = load ptr, ptr %6, align 8, !tbaa !33
  %38 = getelementptr inbounds nuw %struct.VAAPIEncodeContext, ptr %37, i32 0, i32 37
  %39 = load i32, ptr %38, align 8, !tbaa !205
  %40 = load ptr, ptr %6, align 8, !tbaa !33
  %41 = getelementptr inbounds nuw %struct.VAAPIEncodeContext, ptr %40, i32 0, i32 34
  %42 = load i32, ptr %41, align 4, !tbaa !203
  %43 = icmp sgt i32 %39, %42
  br i1 %43, label %44, label %103

44:                                               ; preds = %36, %28
  %45 = load ptr, ptr %4, align 8, !tbaa !4
  %46 = load ptr, ptr %6, align 8, !tbaa !33
  %47 = getelementptr inbounds nuw %struct.VAAPIEncodeContext, ptr %46, i32 0, i32 33
  %48 = load i32, ptr %47, align 8, !tbaa !202
  %49 = load ptr, ptr %6, align 8, !tbaa !33
  %50 = getelementptr inbounds nuw %struct.VAAPIEncodeContext, ptr %49, i32 0, i32 34
  %51 = load i32, ptr %50, align 4, !tbaa !203
  %52 = load ptr, ptr %6, align 8, !tbaa !33
  %53 = getelementptr inbounds nuw %struct.VAAPIEncodeContext, ptr %52, i32 0, i32 38
  %54 = load i32, ptr %53, align 4, !tbaa !204
  %55 = load ptr, ptr %6, align 8, !tbaa !33
  %56 = getelementptr inbounds nuw %struct.VAAPIEncodeContext, ptr %55, i32 0, i32 37
  %57 = load i32, ptr %56, align 8, !tbaa !205
  call void (ptr, i32, ptr, ...) @av_log(ptr noundef %45, i32 noundef 24, ptr noundef @.str.138, i32 noundef %48, i32 noundef %51, i32 noundef %54, i32 noundef %57)
  %58 = load ptr, ptr %6, align 8, !tbaa !33
  %59 = getelementptr inbounds nuw %struct.VAAPIEncodeContext, ptr %58, i32 0, i32 38
  %60 = load i32, ptr %59, align 4, !tbaa !204
  %61 = load ptr, ptr %6, align 8, !tbaa !33
  %62 = getelementptr inbounds nuw %struct.VAAPIEncodeContext, ptr %61, i32 0, i32 33
  %63 = load i32, ptr %62, align 8, !tbaa !202
  %64 = icmp sgt i32 %60, %63
  br i1 %64, label %65, label %69

65:                                               ; preds = %44
  %66 = load ptr, ptr %6, align 8, !tbaa !33
  %67 = getelementptr inbounds nuw %struct.VAAPIEncodeContext, ptr %66, i32 0, i32 33
  %68 = load i32, ptr %67, align 8, !tbaa !202
  br label %73

69:                                               ; preds = %44
  %70 = load ptr, ptr %6, align 8, !tbaa !33
  %71 = getelementptr inbounds nuw %struct.VAAPIEncodeContext, ptr %70, i32 0, i32 38
  %72 = load i32, ptr %71, align 4, !tbaa !204
  br label %73

73:                                               ; preds = %69, %65
  %74 = phi i32 [ %68, %65 ], [ %72, %69 ]
  %75 = load ptr, ptr %6, align 8, !tbaa !33
  %76 = getelementptr inbounds nuw %struct.VAAPIEncodeContext, ptr %75, i32 0, i32 38
  store i32 %74, ptr %76, align 4, !tbaa !204
  %77 = load ptr, ptr %6, align 8, !tbaa !33
  %78 = getelementptr inbounds nuw %struct.VAAPIEncodeContext, ptr %77, i32 0, i32 37
  %79 = load i32, ptr %78, align 8, !tbaa !205
  %80 = load ptr, ptr %6, align 8, !tbaa !33
  %81 = getelementptr inbounds nuw %struct.VAAPIEncodeContext, ptr %80, i32 0, i32 34
  %82 = load i32, ptr %81, align 4, !tbaa !203
  %83 = icmp sgt i32 %79, %82
  br i1 %83, label %84, label %88

84:                                               ; preds = %73
  %85 = load ptr, ptr %6, align 8, !tbaa !33
  %86 = getelementptr inbounds nuw %struct.VAAPIEncodeContext, ptr %85, i32 0, i32 34
  %87 = load i32, ptr %86, align 4, !tbaa !203
  br label %92

88:                                               ; preds = %73
  %89 = load ptr, ptr %6, align 8, !tbaa !33
  %90 = getelementptr inbounds nuw %struct.VAAPIEncodeContext, ptr %89, i32 0, i32 37
  %91 = load i32, ptr %90, align 8, !tbaa !205
  br label %92

92:                                               ; preds = %88, %84
  %93 = phi i32 [ %87, %84 ], [ %91, %88 ]
  %94 = load ptr, ptr %6, align 8, !tbaa !33
  %95 = getelementptr inbounds nuw %struct.VAAPIEncodeContext, ptr %94, i32 0, i32 37
  store i32 %93, ptr %95, align 8, !tbaa !205
  %96 = load ptr, ptr %4, align 8, !tbaa !4
  %97 = load ptr, ptr %6, align 8, !tbaa !33
  %98 = getelementptr inbounds nuw %struct.VAAPIEncodeContext, ptr %97, i32 0, i32 38
  %99 = load i32, ptr %98, align 4, !tbaa !204
  %100 = load ptr, ptr %6, align 8, !tbaa !33
  %101 = getelementptr inbounds nuw %struct.VAAPIEncodeContext, ptr %100, i32 0, i32 37
  %102 = load i32, ptr %101, align 8, !tbaa !205
  call void (ptr, i32, ptr, ...) @av_log(ptr noundef %96, i32 noundef 24, ptr noundef @.str.139, i32 noundef %99, i32 noundef %102)
  br label %103

103:                                              ; preds = %92, %36
  %104 = load ptr, ptr %6, align 8, !tbaa !33
  %105 = getelementptr inbounds nuw %struct.VAAPIEncodeContext, ptr %104, i32 0, i32 38
  %106 = load i32, ptr %105, align 4, !tbaa !204
  %107 = load ptr, ptr %6, align 8, !tbaa !33
  %108 = getelementptr inbounds nuw %struct.VAAPIEncodeContext, ptr %107, i32 0, i32 37
  %109 = load i32, ptr %108, align 8, !tbaa !205
  %110 = mul nsw i32 %106, %109
  store i32 %110, ptr %8, align 4, !tbaa !37
  %111 = load ptr, ptr %4, align 8, !tbaa !4
  %112 = getelementptr inbounds nuw %struct.AVCodecContext, ptr %111, i32 0, i32 68
  %113 = load i32, ptr %112, align 4, !tbaa !201
  %114 = load i32, ptr %8, align 4, !tbaa !37
  %115 = icmp ne i32 %113, %114
  br i1 %115, label %116, label %122

116:                                              ; preds = %103
  %117 = load ptr, ptr %4, align 8, !tbaa !4
  %118 = load ptr, ptr %4, align 8, !tbaa !4
  %119 = getelementptr inbounds nuw %struct.AVCodecContext, ptr %118, i32 0, i32 68
  %120 = load i32, ptr %119, align 4, !tbaa !201
  %121 = load i32, ptr %8, align 4, !tbaa !37
  call void (ptr, i32, ptr, ...) @av_log(ptr noundef %117, i32 noundef 24, ptr noundef @.str.140, i32 noundef %120, i32 noundef %121)
  br label %122

122:                                              ; preds = %116, %103
  %123 = load i32, ptr %8, align 4, !tbaa !37
  %124 = load ptr, ptr %6, align 8, !tbaa !33
  %125 = getelementptr inbounds nuw %struct.VAAPIEncodeContext, ptr %124, i32 0, i32 35
  store i32 %123, ptr %125, align 8, !tbaa !206
  store i32 0, ptr %7, align 4, !tbaa !37
  br label %126

126:                                              ; preds = %177, %122
  %127 = load i32, ptr %7, align 4, !tbaa !37
  %128 = load ptr, ptr %6, align 8, !tbaa !33
  %129 = getelementptr inbounds nuw %struct.VAAPIEncodeContext, ptr %128, i32 0, i32 37
  %130 = load i32, ptr %129, align 8, !tbaa !205
  %131 = icmp slt i32 %127, %130
  br i1 %131, label %132, label %180

132:                                              ; preds = %126
  %133 = load i32, ptr %7, align 4, !tbaa !37
  %134 = add nsw i32 %133, 1
  %135 = load ptr, ptr %6, align 8, !tbaa !33
  %136 = getelementptr inbounds nuw %struct.VAAPIEncodeContext, ptr %135, i32 0, i32 34
  %137 = load i32, ptr %136, align 4, !tbaa !203
  %138 = mul nsw i32 %134, %137
  %139 = load ptr, ptr %6, align 8, !tbaa !33
  %140 = getelementptr inbounds nuw %struct.VAAPIEncodeContext, ptr %139, i32 0, i32 37
  %141 = load i32, ptr %140, align 8, !tbaa !205
  %142 = sdiv i32 %138, %141
  %143 = load i32, ptr %7, align 4, !tbaa !37
  %144 = load ptr, ptr %6, align 8, !tbaa !33
  %145 = getelementptr inbounds nuw %struct.VAAPIEncodeContext, ptr %144, i32 0, i32 34
  %146 = load i32, ptr %145, align 4, !tbaa !203
  %147 = mul nsw i32 %143, %146
  %148 = load ptr, ptr %6, align 8, !tbaa !33
  %149 = getelementptr inbounds nuw %struct.VAAPIEncodeContext, ptr %148, i32 0, i32 37
  %150 = load i32, ptr %149, align 8, !tbaa !205
  %151 = sdiv i32 %147, %150
  %152 = sub nsw i32 %142, %151
  %153 = load ptr, ptr %6, align 8, !tbaa !33
  %154 = getelementptr inbounds nuw %struct.VAAPIEncodeContext, ptr %153, i32 0, i32 39
  %155 = load i32, ptr %7, align 4, !tbaa !37
  %156 = sext i32 %155 to i64
  %157 = getelementptr inbounds [20 x i32], ptr %154, i64 0, i64 %156
  store i32 %152, ptr %157, align 4, !tbaa !37
  %158 = load ptr, ptr %6, align 8, !tbaa !33
  %159 = getelementptr inbounds nuw %struct.VAAPIEncodeContext, ptr %158, i32 0, i32 41
  %160 = load i32, ptr %7, align 4, !tbaa !37
  %161 = sext i32 %160 to i64
  %162 = getelementptr inbounds [21 x i32], ptr %159, i64 0, i64 %161
  %163 = load i32, ptr %162, align 4, !tbaa !37
  %164 = load ptr, ptr %6, align 8, !tbaa !33
  %165 = getelementptr inbounds nuw %struct.VAAPIEncodeContext, ptr %164, i32 0, i32 39
  %166 = load i32, ptr %7, align 4, !tbaa !37
  %167 = sext i32 %166 to i64
  %168 = getelementptr inbounds [20 x i32], ptr %165, i64 0, i64 %167
  %169 = load i32, ptr %168, align 4, !tbaa !37
  %170 = add nsw i32 %163, %169
  %171 = load ptr, ptr %6, align 8, !tbaa !33
  %172 = getelementptr inbounds nuw %struct.VAAPIEncodeContext, ptr %171, i32 0, i32 41
  %173 = load i32, ptr %7, align 4, !tbaa !37
  %174 = add nsw i32 %173, 1
  %175 = sext i32 %174 to i64
  %176 = getelementptr inbounds [21 x i32], ptr %172, i64 0, i64 %175
  store i32 %170, ptr %176, align 4, !tbaa !37
  br label %177

177:                                              ; preds = %132
  %178 = load i32, ptr %7, align 4, !tbaa !37
  %179 = add nsw i32 %178, 1
  store i32 %179, ptr %7, align 4, !tbaa !37
  br label %126, !llvm.loop !355

180:                                              ; preds = %126
  store i32 0, ptr %7, align 4, !tbaa !37
  br label %181

181:                                              ; preds = %232, %180
  %182 = load i32, ptr %7, align 4, !tbaa !37
  %183 = load ptr, ptr %6, align 8, !tbaa !33
  %184 = getelementptr inbounds nuw %struct.VAAPIEncodeContext, ptr %183, i32 0, i32 38
  %185 = load i32, ptr %184, align 4, !tbaa !204
  %186 = icmp slt i32 %182, %185
  br i1 %186, label %187, label %235

187:                                              ; preds = %181
  %188 = load i32, ptr %7, align 4, !tbaa !37
  %189 = add nsw i32 %188, 1
  %190 = load ptr, ptr %6, align 8, !tbaa !33
  %191 = getelementptr inbounds nuw %struct.VAAPIEncodeContext, ptr %190, i32 0, i32 33
  %192 = load i32, ptr %191, align 8, !tbaa !202
  %193 = mul nsw i32 %189, %192
  %194 = load ptr, ptr %6, align 8, !tbaa !33
  %195 = getelementptr inbounds nuw %struct.VAAPIEncodeContext, ptr %194, i32 0, i32 38
  %196 = load i32, ptr %195, align 4, !tbaa !204
  %197 = sdiv i32 %193, %196
  %198 = load i32, ptr %7, align 4, !tbaa !37
  %199 = load ptr, ptr %6, align 8, !tbaa !33
  %200 = getelementptr inbounds nuw %struct.VAAPIEncodeContext, ptr %199, i32 0, i32 33
  %201 = load i32, ptr %200, align 8, !tbaa !202
  %202 = mul nsw i32 %198, %201
  %203 = load ptr, ptr %6, align 8, !tbaa !33
  %204 = getelementptr inbounds nuw %struct.VAAPIEncodeContext, ptr %203, i32 0, i32 38
  %205 = load i32, ptr %204, align 4, !tbaa !204
  %206 = sdiv i32 %202, %205
  %207 = sub nsw i32 %197, %206
  %208 = load ptr, ptr %6, align 8, !tbaa !33
  %209 = getelementptr inbounds nuw %struct.VAAPIEncodeContext, ptr %208, i32 0, i32 40
  %210 = load i32, ptr %7, align 4, !tbaa !37
  %211 = sext i32 %210 to i64
  %212 = getelementptr inbounds [22 x i32], ptr %209, i64 0, i64 %211
  store i32 %207, ptr %212, align 4, !tbaa !37
  %213 = load ptr, ptr %6, align 8, !tbaa !33
  %214 = getelementptr inbounds nuw %struct.VAAPIEncodeContext, ptr %213, i32 0, i32 42
  %215 = load i32, ptr %7, align 4, !tbaa !37
  %216 = sext i32 %215 to i64
  %217 = getelementptr inbounds [23 x i32], ptr %214, i64 0, i64 %216
  %218 = load i32, ptr %217, align 4, !tbaa !37
  %219 = load ptr, ptr %6, align 8, !tbaa !33
  %220 = getelementptr inbounds nuw %struct.VAAPIEncodeContext, ptr %219, i32 0, i32 40
  %221 = load i32, ptr %7, align 4, !tbaa !37
  %222 = sext i32 %221 to i64
  %223 = getelementptr inbounds [22 x i32], ptr %220, i64 0, i64 %222
  %224 = load i32, ptr %223, align 4, !tbaa !37
  %225 = add nsw i32 %218, %224
  %226 = load ptr, ptr %6, align 8, !tbaa !33
  %227 = getelementptr inbounds nuw %struct.VAAPIEncodeContext, ptr %226, i32 0, i32 42
  %228 = load i32, ptr %7, align 4, !tbaa !37
  %229 = add nsw i32 %228, 1
  %230 = sext i32 %229 to i64
  %231 = getelementptr inbounds [23 x i32], ptr %227, i64 0, i64 %230
  store i32 %225, ptr %231, align 4, !tbaa !37
  br label %232

232:                                              ; preds = %187
  %233 = load i32, ptr %7, align 4, !tbaa !37
  %234 = add nsw i32 %233, 1
  store i32 %234, ptr %7, align 4, !tbaa !37
  br label %181, !llvm.loop !356

235:                                              ; preds = %181
  %236 = load ptr, ptr %4, align 8, !tbaa !4
  %237 = load ptr, ptr %6, align 8, !tbaa !33
  %238 = getelementptr inbounds nuw %struct.VAAPIEncodeContext, ptr %237, i32 0, i32 38
  %239 = load i32, ptr %238, align 4, !tbaa !204
  %240 = load ptr, ptr %6, align 8, !tbaa !33
  %241 = getelementptr inbounds nuw %struct.VAAPIEncodeContext, ptr %240, i32 0, i32 37
  %242 = load i32, ptr %241, align 8, !tbaa !205
  call void (ptr, i32, ptr, ...) @av_log(ptr noundef %236, i32 noundef 40, ptr noundef @.str.141, i32 noundef %239, i32 noundef %242)
  store i32 0, ptr %3, align 4
  store i32 1, ptr %9, align 4
  br label %243

243:                                              ; preds = %235, %25
  call void @llvm.lifetime.end.p0(i64 4, ptr %8) #10
  call void @llvm.lifetime.end.p0(i64 4, ptr %7) #10
  call void @llvm.lifetime.end.p0(i64 8, ptr %6) #10
  %244 = load i32, ptr %3, align 4
  ret i32 %244
}