; Function Attrs: cold nounwind optsize uwtable
define internal fastcc range(i32 -22, 1) i32 @vaapi_encode_init_tile_slice_structure(ptr noundef %0, i32 noundef range(i32 -2147483647, -2147483648) %1) unnamed_addr #2 {
  %3 = getelementptr inbounds nuw i8, ptr %0, i64 32
  %4 = load ptr, ptr %3, align 8, !tbaa !4
  %5 = and i32 %1, 2
  %.not = icmp eq i32 %5, 0
  br i1 %.not, label %6, label %13

6:                                                ; preds = %2
  %7 = and i32 %1, 16
  %.not84 = icmp eq i32 %7, 0
  br i1 %.not84, label %12, label %8

8:                                                ; preds = %6
  %9 = getelementptr inbounds nuw i8, ptr %4, i64 1600
  %10 = load i32, ptr %9, align 8, !tbaa !171
  %11 = icmp eq i32 %10, 1
  br i1 %11, label %13, label %12

12:                                               ; preds = %8, %6
  tail call void (ptr, i32, ptr, ...) @av_log(ptr noundef nonnull %0, i32 noundef 16, ptr noundef nonnull @.str.137, i32 noundef %1) #9
  br label %82

13:                                               ; preds = %8, %2
  %14 = getelementptr inbounds nuw i8, ptr %4, i64 1604
  %15 = load i32, ptr %14, align 4, !tbaa !170
  %16 = getelementptr inbounds nuw i8, ptr %4, i64 1584
  %17 = load i32, ptr %16, align 8, !tbaa !168
  %18 = icmp sgt i32 %15, %17
  br i1 %18, label %._crit_edge94, label %19

._crit_edge94:                                    ; preds = %13
  %.phi.trans.insert = getelementptr inbounds nuw i8, ptr %4, i64 1588
  %.pre = load i32, ptr %.phi.trans.insert, align 4, !tbaa !169
  %.phi.trans.insert95 = getelementptr inbounds nuw i8, ptr %4, i64 1600
  %.pre96 = load i32, ptr %.phi.trans.insert95, align 8, !tbaa !171
  br label %25

19:                                               ; preds = %13
  %20 = getelementptr inbounds nuw i8, ptr %4, i64 1600
  %21 = load i32, ptr %20, align 8, !tbaa !171
  %22 = getelementptr inbounds nuw i8, ptr %4, i64 1588
  %23 = load i32, ptr %22, align 4, !tbaa !169
  %24 = icmp sgt i32 %21, %23
  br i1 %24, label %25, label %35

25:                                               ; preds = %._crit_edge94, %19
  %26 = phi i32 [ %.pre96, %._crit_edge94 ], [ %21, %19 ]
  %27 = phi i32 [ %.pre, %._crit_edge94 ], [ %23, %19 ]
  %28 = getelementptr inbounds nuw i8, ptr %4, i64 1588
  %29 = getelementptr inbounds nuw i8, ptr %4, i64 1600
  tail call void (ptr, i32, ptr, ...) @av_log(ptr noundef nonnull %0, i32 noundef 24, ptr noundef nonnull @.str.138, i32 noundef %17, i32 noundef %27, i32 noundef %15, i32 noundef %26) #9
  %30 = load i32, ptr %14, align 4, !tbaa !170
  %31 = load i32, ptr %16, align 8, !tbaa !168
  %. = tail call i32 @llvm.smin.i32(i32 %30, i32 %31)
  store i32 %., ptr %14, align 4, !tbaa !170
  %32 = load i32, ptr %29, align 8, !tbaa !171
  %33 = load i32, ptr %28, align 4, !tbaa !169
  %34 = tail call i32 @llvm.smin.i32(i32 %32, i32 %33)
  store i32 %34, ptr %29, align 8, !tbaa !171
  tail call void (ptr, i32, ptr, ...) @av_log(ptr noundef nonnull %0, i32 noundef 24, ptr noundef nonnull @.str.139, i32 noundef %., i32 noundef %34) #9
  %.pre97 = load i32, ptr %14, align 4, !tbaa !170
  %.pre99 = load i32, ptr %29, align 8, !tbaa !171
  br label %35

35:                                               ; preds = %25, %19
  %36 = phi i32 [ %.pre99, %25 ], [ %21, %19 ]
  %37 = phi i32 [ %.pre97, %25 ], [ %15, %19 ]
  %38 = getelementptr inbounds nuw i8, ptr %4, i64 1600
  %39 = mul nsw i32 %36, %37
  %40 = getelementptr inbounds nuw i8, ptr %0, i64 340
  %41 = load i32, ptr %40, align 4, !tbaa !167
  %.not85 = icmp eq i32 %41, %39
  br i1 %.not85, label %43, label %42

42:                                               ; preds = %35
  tail call void (ptr, i32, ptr, ...) @av_log(ptr noundef nonnull %0, i32 noundef 24, ptr noundef nonnull @.str.140, i32 noundef %41, i32 noundef %39) #9
  br label %43

43:                                               ; preds = %42, %35
  %44 = getelementptr inbounds nuw i8, ptr %4, i64 1592
  store i32 %39, ptr %44, align 8, !tbaa !172
  %45 = load i32, ptr %38, align 8, !tbaa !171
  %46 = icmp sgt i32 %45, 0
  br i1 %46, label %.lr.ph, label %.preheader

.lr.ph:                                           ; preds = %43
  %47 = getelementptr inbounds nuw i8, ptr %4, i64 1588
  %48 = getelementptr inbounds nuw i8, ptr %4, i64 1608
  %49 = getelementptr inbounds nuw i8, ptr %4, i64 1776
  %.pre100 = load i32, ptr %47, align 4, !tbaa !169
  %.pre101 = load i32, ptr %49, align 4, !tbaa !109
  %50 = zext nneg i32 %45 to i64
  br label %56

.preheader:                                       ; preds = %56, %43
  %51 = load i32, ptr %14, align 4, !tbaa !170
  %52 = icmp sgt i32 %51, 0
  br i1 %52, label %.lr.ph88, label %._crit_edge

.lr.ph88:                                         ; preds = %.preheader
  %53 = getelementptr inbounds nuw i8, ptr %4, i64 1688
  %54 = getelementptr inbounds nuw i8, ptr %4, i64 1860
  %.pre102 = load i32, ptr %16, align 8, !tbaa !168
  %.pre103 = load i32, ptr %54, align 4, !tbaa !109
  %55 = zext nneg i32 %51 to i64
  br label %69

56:                                               ; preds = %.lr.ph, %56
  %57 = phi i32 [ %.pre101, %.lr.ph ], [ %66, %56 ]
  %indvars.iv = phi i64 [ 0, %.lr.ph ], [ %indvars.iv.next, %56 ]
  %indvars.iv.next = add nuw nsw i64 %indvars.iv, 1
  %58 = trunc nuw nsw i64 %indvars.iv.next to i32
  %59 = mul nsw i32 %.pre100, %58
  %60 = sdiv i32 %59, %45
  %61 = trunc nuw nsw i64 %indvars.iv to i32
  %62 = mul nsw i32 %.pre100, %61
  %63 = sdiv i32 %62, %45
  %64 = sub nsw i32 %60, %63
  %65 = getelementptr inbounds nuw [20 x i32], ptr %48, i64 0, i64 %indvars.iv
  store i32 %64, ptr %65, align 4, !tbaa !109
  %66 = add nsw i32 %57, %64
  %67 = getelementptr inbounds nuw [21 x i32], ptr %49, i64 0, i64 %indvars.iv.next
  store i32 %66, ptr %67, align 4, !tbaa !109
  %68 = icmp samesign ult i64 %indvars.iv.next, %50
  br i1 %68, label %56, label %.preheader, !llvm.loop !289

69:                                               ; preds = %.lr.ph88, %69
  %70 = phi i32 [ %.pre103, %.lr.ph88 ], [ %79, %69 ]
  %indvars.iv91 = phi i64 [ 0, %.lr.ph88 ], [ %indvars.iv.next92, %69 ]
  %indvars.iv.next92 = add nuw nsw i64 %indvars.iv91, 1
  %71 = trunc nuw nsw i64 %indvars.iv.next92 to i32
  %72 = mul nsw i32 %.pre102, %71
  %73 = sdiv i32 %72, %51
  %74 = trunc nuw nsw i64 %indvars.iv91 to i32
  %75 = mul nsw i32 %.pre102, %74
  %76 = sdiv i32 %75, %51
  %77 = sub nsw i32 %73, %76
  %78 = getelementptr inbounds nuw [22 x i32], ptr %53, i64 0, i64 %indvars.iv91
  store i32 %77, ptr %78, align 4, !tbaa !109
  %79 = add nsw i32 %70, %77
  %80 = getelementptr inbounds nuw [23 x i32], ptr %54, i64 0, i64 %indvars.iv.next92
  store i32 %79, ptr %80, align 4, !tbaa !109
  %81 = icmp samesign ult i64 %indvars.iv.next92, %55
  br i1 %81, label %69, label %._crit_edge, !llvm.loop !290

._crit_edge:                                      ; preds = %69, %.preheader
  tail call void (ptr, i32, ptr, ...) @av_log(ptr noundef nonnull %0, i32 noundef 40, ptr noundef nonnull @.str.141, i32 noundef %51, i32 noundef %45) #9
  br label %82

82:                                               ; preds = %._crit_edge, %12
  %.0 = phi i32 [ 0, %._crit_edge ], [ -22, %12 ]
  ret i32 %.0
}